; Function Attrs: mustprogress uwtable
define hidden void @_ZN4cvc58internal11TypeMatcher8addTypesERKSt6vectorINS0_8TypeNodeESaIS3_EE(ptr noundef nonnull align 8 dereferenceable(48) %0, ptr noundef nonnull readonly align 8 captures(none) dereferenceable(24) %1) local_unnamed_addr #3 align 2 personality ptr @__gxx_personality_v0 {
  %3 = alloca %"class.cvc5::internal::TypeNode", align 8
  %4 = load ptr, ptr %1, align 8, !tbaa !19
  %5 = getelementptr inbounds nuw i8, ptr %1, i64 8
  %6 = load ptr, ptr %5, align 8, !tbaa !19
  %.not9 = icmp eq ptr %4, %6
  br i1 %.not9, label %._crit_edge, label %.lr.ph

._crit_edge:                                      ; preds = %_ZN4cvc58internal8TypeNodeD2Ev.exit, %2
  ret void

.lr.ph:                                           ; preds = %2, %_ZN4cvc58internal8TypeNodeD2Ev.exit
  %.sroa.06.010 = phi ptr [ %36, %_ZN4cvc58internal8TypeNodeD2Ev.exit ], [ %4, %2 ]
  %7 = load ptr, ptr %.sroa.06.010, align 8, !tbaa !3
  store ptr %7, ptr %3, align 8, !tbaa !3
  %8 = load i64, ptr %7, align 8
  %9 = lshr i64 %8, 40
  %10 = trunc nuw nsw i64 %9 to i32
  %11 = and i32 %10, 1048575
  %12 = icmp samesign ult i32 %11, 1048574
  br i1 %12, label %13, label %18, !prof !9

13:                                               ; preds = %.lr.ph
  %14 = add i64 %8, 1099511627776
  %15 = and i64 %14, 1152920405095219200
  %16 = and i64 %8, -1152920405095219201
  %17 = or disjoint i64 %15, %16
  store i64 %17, ptr %7, align 8
  br label %_ZN4cvc58internal8TypeNodeC2ERKS1_.exit

18:                                               ; preds = %.lr.ph
  %19 = icmp eq i32 %11, 1048574
  br i1 %19, label %20, label %_ZN4cvc58internal8TypeNodeC2ERKS1_.exit, !prof !10

20:                                               ; preds = %18
  %21 = or i64 %8, 1152920405095219200
  store i64 %21, ptr %7, align 8
  call void @_ZN4cvc58internal4expr9NodeValue20markRefCountMaxedOutEv(ptr noundef nonnull align 8 dereferenceable(24) %7)
  br label %_ZN4cvc58internal8TypeNodeC2ERKS1_.exit

_ZN4cvc58internal8TypeNodeC2ERKS1_.exit:          ; preds = %13, %18, %20
  invoke void @_ZN4cvc58internal11TypeMatcher7addTypeENS0_8TypeNodeE(ptr noundef nonnull align 8 dereferenceable(48) %0, ptr noundef nonnull %3)
          to label %22 unwind label %37

22:                                               ; preds = %_ZN4cvc58internal8TypeNodeC2ERKS1_.exit
  %23 = load ptr, ptr %3, align 8, !tbaa !3
  %24 = load i64, ptr %23, align 8
  %25 = and i64 %24, 1152920405095219200
  %.not.i.i = icmp eq i64 %25, 1152920405095219200
  br i1 %.not.i.i, label %_ZN4cvc58internal8TypeNodeD2Ev.exit, label %26, !prof !10

26:                                               ; preds = %22
  %27 = add i64 %24, 1152920405095219200
  %28 = and i64 %27, 1152920405095219200
  %29 = and i64 %24, -1152920405095219201
  %30 = or disjoint i64 %28, %29
  store i64 %30, ptr %23, align 8
  %31 = icmp eq i64 %28, 0
  br i1 %31, label %32, label %_ZN4cvc58internal8TypeNodeD2Ev.exit, !prof !10

32:                                               ; preds = %26
  invoke void @_ZN4cvc58internal4expr9NodeValue15markForDeletionEv(ptr noundef nonnull align 8 dereferenceable(24) %23)
          to label %_ZN4cvc58internal8TypeNodeD2Ev.exit unwind label %33

33:                                               ; preds = %32
  %34 = landingpad { ptr, i32 }
          catch ptr null
  %35 = extractvalue { ptr, i32 } %34, 0
  call void @__clang_call_terminate(ptr %35) #17
  unreachable

_ZN4cvc58internal8TypeNodeD2Ev.exit:              ; preds = %22, %26, %32
  %36 = getelementptr inbounds nuw i8, ptr %.sroa.06.010, i64 8
  %.not = icmp eq ptr %36, %6
  br i1 %.not, label %._crit_edge, label %.lr.ph

37:                                               ; preds = %_ZN4cvc58internal8TypeNodeC2ERKS1_.exit
  %38 = landingpad { ptr, i32 }
          cleanup
  call void @_ZN4cvc58internal8TypeNodeD2Ev(ptr noundef nonnull align 8 dereferenceable(8) %3) #18
  resume { ptr, i32 } %38
}